; Function Attrs: nounwind uwtable
define dso_local void @strvec_pushl(ptr noundef captures(none) %0, ...) local_unnamed_addr #3 {
  %2 = alloca [1 x %struct.__va_list_tag], align 16
  call void @llvm.lifetime.start.p0(i64 24, ptr nonnull %2) #11
  call void @llvm.va_start.p0(ptr nonnull %2)
  %3 = getelementptr inbounds nuw i8, ptr %2, i64 8
  %4 = getelementptr inbounds nuw i8, ptr %2, i64 16
  %5 = getelementptr inbounds nuw i8, ptr %0, i64 8
  %6 = getelementptr inbounds nuw i8, ptr %0, i64 16
  br label %7

7:                                                ; preds = %strvec_push.exit, %1
  %8 = load i32, ptr %2, align 16
  %9 = icmp ult i32 %8, 41
  br i1 %9, label %10, label %15

10:                                               ; preds = %7
  %11 = load ptr, ptr %4, align 16
  %12 = zext nneg i32 %8 to i64
  %13 = getelementptr i8, ptr %11, i64 %12
  %14 = add nuw nsw i32 %8, 8
  store i32 %14, ptr %2, align 16
  br label %18

15:                                               ; preds = %7
  %16 = load ptr, ptr %3, align 8
  %17 = getelementptr i8, ptr %16, i64 8
  store ptr %17, ptr %3, align 8
  br label %18

18:                                               ; preds = %15, %10
  %19 = phi ptr [ %13, %10 ], [ %16, %15 ]
  %20 = load ptr, ptr %19, align 8, !tbaa !13
  %.not = icmp eq ptr %20, null
  br i1 %.not, label %45, label %21

21:                                               ; preds = %18
  %22 = call ptr @xstrdup(ptr noundef nonnull %20) #11
  %23 = load ptr, ptr %0, align 8, !tbaa !4
  %24 = icmp eq ptr %23, @empty_strvec
  br i1 %24, label %25, label %26

25:                                               ; preds = %21
  store ptr null, ptr %0, align 8, !tbaa !4
  br label %26

26:                                               ; preds = %25, %21
  %27 = phi ptr [ %23, %21 ], [ null, %25 ]
  %28 = load i64, ptr %5, align 8, !tbaa !11
  %29 = add i64 %28, 2
  %30 = load i64, ptr %6, align 8, !tbaa !12
  %31 = icmp ugt i64 %29, %30
  br i1 %31, label %32, label %strvec_push.exit

32:                                               ; preds = %26
  %33 = mul i64 %30, 3
  %34 = add i64 %33, 48
  %35 = lshr i64 %34, 1
  %..i.i = call i64 @llvm.umax.i64(i64 %35, i64 %29)
  store i64 %..i.i, ptr %6, align 8, !tbaa !12
  %36 = icmp ugt i64 %..i.i, 2305843009213693951
  br i1 %36, label %37, label %st_mult.exit.i.i

37:                                               ; preds = %32
  call void (ptr, ...) @die(ptr noundef nonnull @.str.3, i64 noundef 8, i64 noundef %..i.i) #10
  unreachable

st_mult.exit.i.i:                                 ; preds = %32
  %38 = shl nuw i64 %..i.i, 3
  %39 = call ptr @xrealloc(ptr noundef %27, i64 noundef %38) #11
  store ptr %39, ptr %0, align 8, !tbaa !4
  %.pre.i.i = load i64, ptr %5, align 8, !tbaa !11
  br label %strvec_push.exit

strvec_push.exit:                                 ; preds = %26, %st_mult.exit.i.i
  %40 = phi i64 [ %28, %26 ], [ %.pre.i.i, %st_mult.exit.i.i ]
  %41 = phi ptr [ %27, %26 ], [ %39, %st_mult.exit.i.i ]
  %42 = add i64 %40, 1
  store i64 %42, ptr %5, align 8, !tbaa !11
  %43 = getelementptr inbounds nuw ptr, ptr %41, i64 %40
  store ptr %22, ptr %43, align 8, !tbaa !13
  %44 = getelementptr ptr, ptr %41, i64 %42
  store ptr null, ptr %44, align 8, !tbaa !13
  br label %7, !llvm.loop !15

45:                                               ; preds = %18
  call void @llvm.va_end.p0(ptr nonnull %2)
  call void @llvm.lifetime.end.p0(i64 24, ptr nonnull %2) #11
  ret void
}